MPASM 5.87                         SERVO.ASM   12-18-2023  13:36:50         PAGE  1


LOC  OBJECT CODE     LINE SOURCE TEXT
  VALUE

Warning[205]: Found directive in column 1. (LIST)
                      00001 LIST P=16F887
Warning[205]: Found directive in column 1. (INCLUDE)
                      00002 INCLUDE <P16F887.INC>
                      00001         LIST
                      00002 
                      00003 ;==========================================================================
                      00004 ; Build date : Jan 06 2020
                      00005 ;  MPASM PIC16F887 processor include
                      00006 ; 
                      00007 ;  (c) Copyright 1999-2020 Microchip Technology, All rights reserved
                      00008 ;==========================================================================
                      00009 
                      00810         LIST
Warning[205]: Found directive in column 1. (__CONFIG)
2007   2FF4           00003 __CONFIG _CONFIG1, _FOSC_INTRC_NOCLKOUT & _WDTE_OFF & _PWRTE_OFF & _LVP_OFF
                      00004 
Warning[205]: Found directive in column 1. (CBLOCK)
                      00005 CBLOCK  0x20
  00000020            00006 highfactor1
  00000021            00007 timer0_counter1
  00000022            00008 highfactor2
  00000023            00009 timer0_counter2
  00000024            00010 highfactor3 ; Nueva variable para Servo3
  00000025            00011 timer0_counter3 ; Nueva variable para Servo3
Warning[205]: Found directive in column 1. (ENDC)
                      00012 ENDC
                      00013 
  000000A4            00014 TMR0_LOAD equ   .164 ; Valor aproximado para 100 us de temporización.
                      00015 
                      00016 #define OUTPUT1 PORTB,0 ; Renombrar RB0 como OUTPUT1 (Servo Motor 1)
                      00017 #define OUTPUT2 PORTB,1 ; Renombrar RB1 como OUTPUT2 (Servo Motor 2)
                      00018 #define OUTPUT3 PORTB,2 ; Nueva definición para OUTPUT3 (Servo Motor 3)
                      00019  
                      00020 #define LED PORTC,2 ; Foco Afuera
                      00021 #define LED_MiniSplit PORTC, 3 ; MiniSplit
                      00022 #define LED_Sala PORTC, 4 ; MiniSplit
                      00023 
                      00024 #define INPUT1  PORTA,0 ; Renombrar RA0 como INPUT1
                      00025 #define INPUT2  PORTA,1 ; Renombrar RA1 como INPUT2
                      00026 #define INPUT3  PORTA,2 ; Renombrar RA2 como INPUT3
                      00027 #define INPUT4  PORTA,3 ; Renombrar RA3 como INPUT4
                      00028 
Warning[205]: Found directive in column 1. (org)
                      00029 org     0x00  
Warning[203]: Found opcode in column 1. (goto)
0000   2???           00030 goto    Main
Warning[205]: Found directive in column 1. (org)
                      00031 org     0x04
Warning[203]: Found opcode in column 1. (goto)
0004   2???           00032 goto    TIMER0_Interrupt ; Vector de interrupción.
                      00033 
0005                  00034 Main
MPASM 5.87                         SERVO.ASM   12-18-2023  13:36:50         PAGE  2


LOC  OBJECT CODE     LINE SOURCE TEXT
  VALUE

0005   1703           00035     bsf STATUS,6 ; Seleccionar banco 3.
0006   1683           00036     bsf STATUS,5
Message[302]: Register in operand not in bank 0.  Ensure that bank bits are correct.
0007   0188           00037     clrf ANSEL ; PORTA y PORTB funcionan digitalmente,
Message[302]: Register in operand not in bank 0.  Ensure that bank bits are correct.
0008   0189           00038     clrf ANSELH
0009   30D8           00039     movlw 0xD8
Message[302]: Register in operand not in bank 0.  Ensure that bank bits are correct.
000A   0081           00040     movwf OPTION_REG ; La frecuencia del TIMER0 es igual a Fosc/4, prescaler para WDT.
000B   1303           00041     bcf STATUS,6 ; Seleccionar banco 1.
000C   3061           00042     movlw 0x61
Message[302]: Register in operand not in bank 0.  Ensure that bank bits are correct.
000D   008F           00043     movwf OSCCON ; Oscilador interno predeterminado de 4MHz
Message[302]: Register in operand not in bank 0.  Ensure that bank bits are correct.
000E   1006           00044     bcf TRISB,0 ; RB0 funciona como salida para el Servo Motor 1.
Message[302]: Register in operand not in bank 0.  Ensure that bank bits are correct.
000F   1086           00045     bcf TRISB,1 ; RB1 funciona como salida para el Servo Motor 2.
Message[302]: Register in operand not in bank 0.  Ensure that bank bits are correct.
0010   1106           00046     bcf TRISB,2 ; RB2 funciona como salida para el Servo Motor 3.
Message[302]: Register in operand not in bank 0.  Ensure that bank bits are correct.
0011   1107           00047     bcf TRISC,2
Message[302]: Register in operand not in bank 0.  Ensure that bank bits are correct.
0012   1187           00048     bcf TRISC,3
Message[302]: Register in operand not in bank 0.  Ensure that bank bits are correct.
0013   1207           00049     bcf TRISC,4
0014   1283           00050     bcf STATUS,5 ; seleccionar el banco 0.
0015   0186           00051     clrf PORTB
0016   0187           00052     clrf PORTC
0017   30A4           00053     movlw TMR0_LOAD
0018   0081           00054     movwf TMR0 ; TIMER0 es igual a 164.
0019   30A0           00055     movlw 0xA0
001A   008B           00056     movwf INTCON ; GIE = 1 e interrupción de desbordamiento del Timer0
                      00057     ;bsf LED ; Enciende el LED
Warning[207]: Found label after column 1. (Loop)
001B                  00058     Loop
Warning[203]: Found opcode in column 1. (movlw)
001B   3016           00059 movlw .22          ; Puerta
001C   00A0           00060     movwf highfactor1
001D   30FF           00061     movlw 0xFF
001E   00A1           00062     movwf timer0_counter1 ; Establecer timer0_counter1 al valor máximo
Warning[203]: Found opcode in column 1. (movlw)
001F   3005           00063 movlw .5           ; vantana1
0020   00A2           00064     movwf highfactor2
0021   30FF           00065     movlw 0xFF
0022   00A3           00066     movwf timer0_counter2 ; Establecer timer0_counter1 al valor máximo
Warning[203]: Found opcode in column 1. (movlw)
0023   3016           00067 movlw .22           ; venana2
0024   00A4           00068     movwf highfactor3
0025   30FF           00069     movlw 0xFF
0026   00A5           00070     movwf timer0_counter3 ; Establecer timer0_counter1 al valor máximo
Warning[203]: Found opcode in column 1. (call)
0027   2???           00071 call  Delay_1s 
Warning[203]: Found opcode in column 1. (call)
MPASM 5.87                         SERVO.ASM   12-18-2023  13:36:50         PAGE  3


LOC  OBJECT CODE     LINE SOURCE TEXT
  VALUE

0028   2???           00072 call  Delay_1s 
Warning[203]: Found opcode in column 1. (call)
0029   2???           00073 call  Delay_1s 
Warning[203]: Found opcode in column 1. (call)
002A   2???           00074 call  Delay_1s 
Warning[203]: Found opcode in column 1. (call)
002B   2???           00075 call  Delay_1s 
Warning[203]: Found opcode in column 1. (movlw)
002C   3005           00076 movlw .5           ; Puerta
002D   00A0           00077     movwf highfactor1
002E   30FF           00078     movlw 0xFF
002F   00A1           00079     movwf timer0_counter1 ; Establecer timer0_counter1 al valor máximo
Warning[203]: Found opcode in column 1. (call)
0030   2???           00080 call  Delay_1s 
Warning[203]: Found opcode in column 1. (call)
0031   2???           00081 call  Delay_1s 
Warning[203]: Found opcode in column 1. (call)
0032   2???           00082 call  Delay_1s 
Warning[203]: Found opcode in column 1. (call)
0033   2???           00083 call  Delay_1s 
Warning[203]: Found opcode in column 1. (call)
0034   2???           00084 call  Delay_1s 
Warning[203]: Found opcode in column 1. (bsf)
0035   1587           00085 bsf LED_MiniSplit 
Warning[203]: Found opcode in column 1. (call)
0036   2???           00086 call  Delay_1s 
Warning[203]: Found opcode in column 1. (call)
0037   2???           00087 call  Delay_1s 
Warning[203]: Found opcode in column 1. (call)
0038   2???           00088 call  Delay_1s 
Warning[203]: Found opcode in column 1. (call)
0039   2???           00089 call  Delay_1s 
Warning[203]: Found opcode in column 1. (call)
003A   2???           00090 call  Delay_1s 
Warning[203]: Found opcode in column 1. (bsf)
003B   1607           00091 bsf LED_Sala 
Warning[203]: Found opcode in column 1. (call)
003C   2???           00092 call  Delay_1s 
Warning[203]: Found opcode in column 1. (call)
003D   2???           00093 call  Delay_1s 
Warning[203]: Found opcode in column 1. (call)
003E   2???           00094 call  Delay_1s 
Warning[203]: Found opcode in column 1. (call)
003F   2???           00095 call  Delay_1s 
Warning[203]: Found opcode in column 1. (call)
0040   2???           00096 call  Delay_1s 
Warning[203]: Found opcode in column 1. (bsf)
0041   1507           00097 bsf LED 
Warning[203]: Found opcode in column 1. (call)
0042   2???           00098 call  Delay_1s 
Warning[203]: Found opcode in column 1. (call)
0043   2???           00099 call  Delay_1s 
Warning[203]: Found opcode in column 1. (call)
MPASM 5.87                         SERVO.ASM   12-18-2023  13:36:50         PAGE  4


LOC  OBJECT CODE     LINE SOURCE TEXT
  VALUE

0044   2???           00100 call  Delay_1s 
Warning[203]: Found opcode in column 1. (call)
0045   2???           00101 call  Delay_1s 
Warning[203]: Found opcode in column 1. (call)
0046   2???           00102 call  Delay_1s 
Warning[203]: Found opcode in column 1. (movlw)
0047   3016           00103 movlw .22          ; Puerta
0048   00A0           00104     movwf highfactor1
0049   30FF           00105     movlw 0xFF
004A   00A1           00106     movwf timer0_counter1 ; Establecer timer0_counter1 al valor máximo
Warning[203]: Found opcode in column 1. (bcf)
004B   1107           00107 bcf LED 
Warning[203]: Found opcode in column 1. (bcf)
004C   1207           00108 bcf LED_Sala 
Warning[203]: Found opcode in column 1. (bcf)
004D   1187           00109 bcf LED_MiniSplit 
Warning[203]: Found opcode in column 1. (Goto)
004E   2???           00110 Goto Loop
004F                  00111 TIMER0_Interrupt
004F   30A4           00112     movlw TMR0_LOAD ; Load TIMER0 with the value of TMR0_LOAD
0050   0081           00113     movwf TMR0
                      00114     ; Servo Motor 1
Message[305]: Using default destination of 1 (file).
0051   0BA1           00115     decfsz timer0_counter1 ; Decrements by one unit, jump if it's zero
0052   2???           00116     goto Servo1 ; Go to Servo1
0053   1806           00117     btfsc OUTPUT1 ; Complements the value of OUTPUT1.
0054   2???           00118     goto HighS1
                      00119     
0055                  00120 LowS1 ; Set OUTPUT1 to zero.
0055   1406           00121     bsf OUTPUT1
0056   0820           00122     movf highfactor1,W ; Time the signal is high.
0057   00A1           00123     movwf timer0_counter1
0058   2???           00124     goto Servo1
                      00125 
0059                  00126 HighS1
0059   1006           00127     bcf OUTPUT1 ; Set OUTPUT1 to one.
005A   0820           00128     movf highfactor1,W
005B   3CC8           00129     sublw .200 ; Time the signal is low.
005C   00A1           00130     movwf timer0_counter1
005D   2???           00131     goto Servo1
                      00132 
005E                  00133 Servo1
                      00134     ; Servo Motor 2
Message[305]: Using default destination of 1 (file).
005E   0BA3           00135     decfsz timer0_counter2 ; Decrements by one unit, jump if it's zero
005F   2???           00136     goto Servo2 ; Go to Servo2
0060   1886           00137     btfsc OUTPUT2 ; Complements the value of OUTPUT2.
0061   2???           00138     goto HighS2
                      00139     
0062                  00140 LowS2 ; Set OUTPUT2 to zero.
0062   1486           00141     bsf OUTPUT2
0063   0822           00142     movf highfactor2,W ; Time the signal is high.
0064   00A3           00143     movwf timer0_counter2
MPASM 5.87                         SERVO.ASM   12-18-2023  13:36:50         PAGE  5


LOC  OBJECT CODE     LINE SOURCE TEXT
  VALUE

0065   2???           00144     goto Servo2
                      00145 
0066                  00146 HighS2
0066   1086           00147     bcf OUTPUT2 ; Set OUTPUT2 to one.
0067   0822           00148     movf highfactor2,W
0068   3CC8           00149     sublw .200 ; Time the signal is low.
0069   00A3           00150     movwf timer0_counter2
006A   2???           00151     goto Servo2
                      00152 
006B                  00153 Servo2
                      00154     ; Servo Motor 3
Message[305]: Using default destination of 1 (file).
006B   0BA5           00155     decfsz timer0_counter3 ; Decrements by one unit, jump if it's zero
006C   2???           00156     goto EndInterrupt ; Go to EndInterrupt
006D   1906           00157     btfsc OUTPUT3 ; Complements the value of OUTPUT3.
006E   2???           00158     goto HighS3
                      00159     
006F                  00160 LowS3 ; Set OUTPUT3 to zero.
006F   1506           00161     bsf OUTPUT3
0070   0824           00162     movf highfactor3,W ; Time the signal is high.
0071   00A5           00163     movwf timer0_counter3
0072   2???           00164     goto EndInterrupt
                      00165 
0073                  00166 HighS3
0073   1106           00167     bcf OUTPUT3 ; Set OUTPUT3 to one.
0074   0824           00168     movf highfactor3,W
0075   3CC8           00169     sublw .200 ; Time the signal is low.
0076   00A5           00170     movwf timer0_counter3
0077   2???           00171     goto EndInterrupt
                      00172 
0078                  00173 EndInterrupt
0078   110B           00174     bcf INTCON,2 ; Clear interrupt bit of TIMER0.
0079   0009           00175     retfie
                      00176     INCLUDE <C:\Users\Alex\Downloads\DELAYS.inc>
                      00001 ;***********************************Librery "Delays.INC"*********************
                      00002 ;Autor: Ing. Marcos Becerra Zárate.
                      00003 ;Frecuency oscillator: 4Mhz.
                      00004 ;
                      00005 ;This library contain subroutines of time,starting with:
                      00006 ;   -4 us.          -500 ms.
                      00007 ;   -5 us.          -1 s.
                      00008 ;   -10 us.         -2 s.
                      00009 ;   -20 us.         -5 s.
                      00010 ;   -50 us.         -10 s.
                      00011 ;   -100 us.        -20 s.
                      00012 ;   -200 us.        
                      00013 ;   -500 us.
                      00014 ;   -1 ms.
                      00015 ;   -2 ms.
                      00016 ;   -5 ms.
                      00017 ;   -10 ms.
                      00018 ;   -20 ms.
                      00019 ;   -50 ms.
MPASM 5.87                         SERVO.ASM   12-18-2023  13:36:50         PAGE  6


LOC  OBJECT CODE     LINE SOURCE TEXT
  VALUE

                      00020 ;   -100 ms.
                      00021 ;   -200 ms.
                      00022 
                      00023 ;Data area**********************************************************************
                      00024 
                      00025         CBLOCK
  00000026            00026         T1
  00000027            00027         T2
  00000028            00028         T3
                      00029         ENDC
                      00030 
                      00031 ;Delay from 4 to 10 us----------------------------------------------------------
                      00032         
Warning[207]: Found label after column 1. (Delay_10us)
007A                  00033         Delay_10us                              ;Provides 2 machine cicle.
007A   0000           00034         nop                                     ;Provides 1 machine cicle.
007B   0000           00035         nop                                     ;Provides 1 machine cicle.
007C   0000           00036         nop                                     ;Provices 1 machine cicle.
007D   0000           00037         nop                                     ;Provices 1 machine cicle.
007E   0000           00038         nop                                     ;Provices 1 machine cicle.
Warning[207]: Found label after column 1. (Delay_5us)
007F                  00039         Delay_5us                               ;Provides 2 machine cicle.
007F   0000           00040         nop                                     ;Provides 1 machine cicle.
Warning[207]: Found label after column 1. (Delay_4us)
0080                  00041         Delay_4us                               ;Provides 2 machine cicle.
0080   0008           00042         return                                  ;Provides 2 machine cicle.
                      00043 
                      00044 ;Delay 20 to 500 us-------------------------------------------------------------
                      00045 
Warning[207]: Found label after column 1. (Delay_500us)
0081                  00046         Delay_500us                             ;Provides 2 machine cicle.
0081   307B           00047         movlw   d'123'                          ;Provides 1 machine cicle.
0082   00A6           00048         movwf   T1                              ;Provides 1 machine cicle.
0083   0000           00049         nop                                     ;Provides 1 machine cicle.
0084   2???           00050         goto    Bucle_Interno_us                ;Provides 2 machine cicle.
                      00051         
Warning[207]: Found label after column 1. (Delay_200us)
0085                  00052         Delay_200us                             ;Provides 2 machine cicle.
0085   3030           00053         movlw   d'48'                           ;Provides 1 machine cicle.
0086   00A6           00054         movwf   T1                              ;Provides 1 machine cicle.
0087   0000           00055         nop                                     ;Provides 1 machine cicle.
0088   2???           00056         goto    Bucle_Interno_us                ;Provides 2 machine cicle.
                      00057         
Warning[207]: Found label after column 1. (Delay_100us)
0089                  00058         Delay_100us                             ;Provides 2 machine cicle.
0089   3017           00059         movlw   d'23'                           ;Provides 1 machine cicle.
008A   00A6           00060         movwf   T1                              ;Provides 1 machine cicle.
008B   0000           00061         nop                                     ;Provides 1 machine cicle.
008C   2???           00062         goto    Bucle_Interno_us                ;Provides 2 machine cicle.
                      00063         
Warning[207]: Found label after column 1. (Delay_50us)
008D                  00064         Delay_50us                              ;Provides 2 machine cicle.
008D   300A           00065         movlw   d'10'                           ;Provides 1 machine cicle.
MPASM 5.87                         SERVO.ASM   12-18-2023  13:36:50         PAGE  7


LOC  OBJECT CODE     LINE SOURCE TEXT
  VALUE

008E   00A6           00066         movwf   T1                              ;Provides 1 machine cicle.
008F   0000           00067         nop                                     ;Provides 1 machine cicle.
0090   0000           00068         nop                                     ;Provides 1 machine cicle.
0091   0000           00069         nop                                     ;Provides 1 machine cicle.
0092   2???           00070         goto    Bucle_Interno_us                ;Provides 2 machine cicle.
                      00071         
Warning[207]: Found label after column 1. (Delay_20us)
0093                  00072         Delay_20us                              ;Provides 2 machine cicle.
0093   3003           00073         movlw   d'3'                            ;Provides 1 machine cicle.
0094   00A6           00074         movwf   T1                              ;Provides 1 machine cicle.
0095   0000           00075         nop                                     ;Provides 1 machine cicle.
0096   0000           00076         nop                                     ;Provides 1 machine cicle.
0097   0000           00077         nop                                     ;Provides 1 machine cicle.
                      00078 
Warning[207]: Found label after column 1. (Bucle_Interno_us)
0098                  00079  Bucle_Interno_us                                       
0098   0000           00080         nop                                     ;Provides 1 machine cicle.
0099   0BA6           00081         decfsz  T1,F                            ;Provides 1 machine cicle and 2.
009A   2???           00082         goto    Bucle_Interno_us                ;Provides 2 machine cicle.
009B   0008           00083         return                                  ;Provides 2 machine cicle.
                      00084         
                      00085 ;Delay 1 to 200 ms--------------------------------------------------------------
                      00086         
Warning[207]: Found label after column 1. (Delay_200ms)
009C                  00087         Delay_200ms                             ;Provides 2 machine cicle.
009C   30C8           00088         movlw   d'200'                          ;Provides 1 machine cicle.
009D   00A7           00089         movwf   T2                              ;Provides 1 machine cicle.
009E   2???           00090         goto    Bucle_Externo_ms                ;Provides 2 machine cicle.
                      00091         
Warning[207]: Found label after column 1. (Delay_100ms)
009F                  00092         Delay_100ms                             ;Provides 2 machine cicle.
009F   3064           00093         movlw   d'100'                          ;Provides 1 machine cicle.
00A0   00A7           00094         movwf   T2                              ;Provides 1 machine cicle.
00A1   2???           00095         goto    Bucle_Externo_ms                ;Provides 2 machine cicle.
                      00096         
Warning[207]: Found label after column 1. (Delay_50ms)
00A2                  00097         Delay_50ms                              ;Provides 2 machine cicle.
00A2   3032           00098         movlw   d'50'                           ;Provides 1 machine cicle.
00A3   00A7           00099         movwf   T2                              ;Provides 1 machine cicle.
00A4   2???           00100         goto    Bucle_Externo_ms                ;Provides 2 machine cicle.
                      00101         
Warning[207]: Found label after column 1. (Delay_20ms)
00A5                  00102         Delay_20ms                              ;Provides 2 machine cicle.
00A5   3014           00103         movlw   d'20'                           ;Provides 1 machine cicle.
00A6   00A7           00104         movwf   T2                              ;Provides 1 machine cicle.
00A7   2???           00105         goto    Bucle_Externo_ms                ;Provides 2 machine cicle.
                      00106         
Warning[207]: Found label after column 1. (Delay_10ms)
00A8                  00107         Delay_10ms                              ;Provides 2 machine cicle.
00A8   300A           00108         movlw   d'10'                           ;Provides 1 machine cicle.
00A9   00A7           00109         movwf   T2                              ;Provides 1 machine cicle.
00AA   2???           00110         goto    Bucle_Externo_ms                ;Provides 2 machine cicle.
                      00111         
MPASM 5.87                         SERVO.ASM   12-18-2023  13:36:50         PAGE  8


LOC  OBJECT CODE     LINE SOURCE TEXT
  VALUE

Warning[207]: Found label after column 1. (Delay_5ms)
00AB                  00112         Delay_5ms                               ;Provides 2 machine cicle.
00AB   3005           00113         movlw   d'5'                            ;Provides 1 machine cicle.
00AC   00A7           00114         movwf   T2                              ;Provides 1 machine cicle.
00AD   2???           00115         goto    Bucle_Externo_ms                ;Provides 2 machine cicle.
                      00116         
Warning[207]: Found label after column 1. (Delay_2ms)
00AE                  00117         Delay_2ms                               ;Provides 2 machine cicle.
00AE   3002           00118         movlw   d'2'                            ;Provides 1 machine cicle.
00AF   00A7           00119         movwf   T2                              ;Provides 1 machine cicle.
00B0   2???           00120         goto    Bucle_Externo_ms                ;Provides 2 machine cicle.
                      00121         
                      00122         
Warning[207]: Found label after column 1. (Delay_1ms)
00B1                  00123         Delay_1ms                               ;Provides 2 machine cicle.
00B1   3001           00124         movlw   d'1'                            ;Provides 1 machine cicle.
00B2   00A7           00125         movwf   T2                              ;Provides 1 machine cicle.
                      00126         
00B3                  00127 Bucle_Externo_ms                                        
00B3   30F9           00128         movlw   d'249'                          ;Provides 1 machine cicle.
00B4   00A6           00129         movwf   T1                              ;Provides 1 machine cicle.
                      00130         
00B5                  00131 Bucle_Interno_ms
00B5   0000           00132         nop                                     ;Provides 1 machine cicle.
00B6   0BA6           00133         decfsz  T1,F                            ;Provides 1 machine cicle and 2.
00B7   2???           00134         goto    Bucle_Interno_ms                ;Provides 2 machine cicle.
00B8   0BA7           00135         decfsz  T2,F                            ;Provides 1 machine cicle and 2.
00B9   2???           00136         goto    Bucle_Externo_ms                ;Provides 2 machine cicle.
00BA   0008           00137         return                                  ;Provides 2 machine cicle.
                      00138 
                      00139 ;Delay 500 ms to 20 seconds-----------------------------------------------------
                      00140         
Warning[207]: Found label after column 1. (Delay_20s)
00BB                  00141         Delay_20s                               ;Provides 2 machine cicle.
00BB   30C8           00142         movlw   d'200'                          ;Provides 1 machine cicle.  
00BC   00A8           00143         movwf   T3                              ;Provides 1 machine cicle.
00BD   2???           00144         goto    Loop_Second                     ;Provides 2 machine cicle.
                      00145         
Warning[207]: Found label after column 1. (Delay_10s)
00BE                  00146         Delay_10s                               ;Provides 2 machine cicle.
00BE   3064           00147         movlw   d'100'                          ;Provides 1 machine cicle.  
00BF   00A8           00148         movwf   T3                              ;Provides 1 machine cicle.
00C0   2???           00149         goto    Loop_Second                     ;Provides 2 machine cicle.
                      00150         
Warning[207]: Found label after column 1. (Delay_5s)
00C1                  00151         Delay_5s                                ;Provides 2 machine cicle.
00C1   3032           00152         movlw   d'50'                           ;Provides 1 machine cicle.  
00C2   00A8           00153         movwf   T3                              ;Provides 1 machine cicle.
00C3   2???           00154         goto    Loop_Second                     ;Provides 2 machine cicle.
                      00155         
Warning[207]: Found label after column 1. (Delay_2s)
00C4                  00156         Delay_2s                                ;Provides 2 machine cicle.
00C4   3014           00157         movlw   d'20'                           ;Provides 1 machine cicle.  
MPASM 5.87                         SERVO.ASM   12-18-2023  13:36:50         PAGE  9


LOC  OBJECT CODE     LINE SOURCE TEXT
  VALUE

00C5   00A8           00158         movwf   T3                              ;Provides 1 machine cicle.
00C6   2???           00159         goto    Loop_Second                     ;Provides 2 machine cicle.
                      00160         
Warning[207]: Found label after column 1. (Delay_1s)
00C7                  00161         Delay_1s                                ;Provides 2 machine cicle.
00C7   300A           00162         movlw   d'10'                           ;Provides 1 machine cicle.  
00C8   00A8           00163         movwf   T3                              ;Provides 1 machine cicle.
00C9   2???           00164         goto    Loop_Second                     ;Provides 2 machine cicle.
                      00165         
Warning[207]: Found label after column 1. (Delay_500ms)
00CA                  00166         Delay_500ms                             ;Provides 2 machine cicle.
00CA   3005           00167         movlw   d'5'                            ;Provides 1 machine cicle.  
00CB   00A8           00168         movwf   T3                              ;Provides 1 machine cicle.
                      00169         
00CC                  00170 Loop_Second
00CC   3064           00171         movlw   d'100'                          ;Provides 1 machine cicle.
00CD   00A7           00172         movwf   T2                              ;Provides 1 machine cicle.
                      00173         
00CE                  00174 Loop_First          
00CE   30F9           00175         movlw   d'249'                          ;Provides 1 machine cicle.
00CF   00A6           00176         movwf   T1                              ;Provides 1 machine cicle.
                      00177         
00D0                  00178 Bucle_Interno
00D0   0000           00179         nop
00D1   0BA6           00180         decfsz  T1,F                            ;Provides 1 and 2 machine cicle.
00D2   2???           00181         goto    Bucle_Interno                   ;Provides 2 machine cicle.
00D3   0BA7           00182         decfsz  T2,F                            ;Provides 1 and 2 machine cicle.
00D4   2???           00183         goto    Loop_First                      ;Provides 2 machine cicle.
00D5   0BA8           00184         decfsz  T3,F                            ;Provides 1 and 2 machine cicle.
00D6   2???           00185         goto    Loop_Second                     ;Provides 2 machine cicle.
00D7   0008           00186         return                                  ;Provides 2 machine cicle.
2FF4                  00177     END ; Linea de fin
MPASM 5.87                         SERVO.ASM   12-18-2023  13:36:50         PAGE 10


SYMBOL TABLE
  LABEL                             VALUE 

ABDEN                             00000000
ABDOVF                            00000007
ACKDT                             00000005
ACKEN                             00000004
ACKSTAT                           00000006
ADCON0                            0000001F
ADCON1                            0000009F
ADCS0                             00000006
ADCS1                             00000007
ADDEN                             00000003
ADFM                              00000007
ADIE                              00000006
ADIF                              00000006
ADON                              00000000
ADRESH                            0000001E
ADRESL                            0000009E
ANS0                              00000000
ANS1                              00000001
ANS10                             00000002
ANS11                             00000003
ANS12                             00000004
ANS13                             00000005
ANS2                              00000002
ANS3                              00000003
ANS4                              00000004
ANS5                              00000005
ANS6                              00000006
ANS7                              00000007
ANS8                              00000000
ANS9                              00000001
ANSEL                             00000188
ANSELH                            00000189
BAUDCTL                           00000187
BCLIE                             00000003
BCLIF                             00000003
BF                                00000000
BRG0                              00000000
BRG1                              00000001
BRG10                             00000002
BRG11                             00000003
BRG12                             00000004
BRG13                             00000005
BRG14                             00000006
BRG15                             00000007
BRG16                             00000003
BRG2                              00000002
BRG3                              00000003
BRG4                              00000004
BRG5                              00000005
BRG6                              00000006
BRG7                              00000007
BRG8                              00000000
BRG9                              00000001
MPASM 5.87                         SERVO.ASM   12-18-2023  13:36:50         PAGE 11


SYMBOL TABLE
  LABEL                             VALUE 

BRGH                              00000002
Bucle_Externo_ms                  000000B3
Bucle_Interno                     000000D0
Bucle_Interno_ms                  000000B5
Bucle_Interno_us                  00000098
C                                 00000000
C1CH0                             00000000
C1CH1                             00000001
C1IE                              00000005
C1IF                              00000005
C1OE                              00000005
C1ON                              00000007
C1OUT                             00000006
C1POL                             00000004
C1R                               00000002
C1RSEL                            00000005
C1SEN                             00000005
C2CH0                             00000000
C2CH1                             00000001
C2IE                              00000006
C2IF                              00000006
C2OE                              00000005
C2ON                              00000007
C2OUT                             00000006
C2POL                             00000004
C2R                               00000002
C2REN                             00000004
C2RSEL                            00000004
C2SYNC                            00000000
CCP1CON                           00000017
CCP1IE                            00000002
CCP1IF                            00000002
CCP1M0                            00000000
CCP1M1                            00000001
CCP1M2                            00000002
CCP1M3                            00000003
CCP1X                             00000005
CCP1Y                             00000004
CCP2CON                           0000001D
CCP2IE                            00000000
CCP2IF                            00000000
CCP2M0                            00000000
CCP2M1                            00000001
CCP2M2                            00000002
CCP2M3                            00000003
CCP2X                             00000005
CCP2Y                             00000004
CCPR1                             00000015
CCPR1H                            00000016
CCPR1L                            00000015
CCPR2                             0000001B
CCPR2H                            0000001C
CCPR2L                            0000001B
MPASM 5.87                         SERVO.ASM   12-18-2023  13:36:50         PAGE 12


SYMBOL TABLE
  LABEL                             VALUE 

CHS0                              00000002
CHS1                              00000003
CHS2                              00000004
CHS3                              00000005
CKE                               00000006
CKP                               00000004
CM1CON0                           00000107
CM2CON0                           00000108
CM2CON1                           00000109
CREN                              00000004
CSRC                              00000007
D                                 00000005
DATA_ADDRESS                      00000005
DC                                00000001
DC1B0                             00000004
DC1B1                             00000005
DC2B0                             00000004
DC2B1                             00000005
D_A                               00000005
D_NOT_A                           00000005
Delay_100ms                       0000009F
Delay_100us                       00000089
Delay_10ms                        000000A8
Delay_10s                         000000BE
Delay_10us                        0000007A
Delay_1ms                         000000B1
Delay_1s                          000000C7
Delay_200ms                       0000009C
Delay_200us                       00000085
Delay_20ms                        000000A5
Delay_20s                         000000BB
Delay_20us                        00000093
Delay_2ms                         000000AE
Delay_2s                          000000C4
Delay_4us                         00000080
Delay_500ms                       000000CA
Delay_500us                       00000081
Delay_50ms                        000000A2
Delay_50us                        0000008D
Delay_5ms                         000000AB
Delay_5s                          000000C1
Delay_5us                         0000007F
ECCPAS                            0000009C
ECCPAS0                           00000004
ECCPAS1                           00000005
ECCPAS2                           00000006
ECCPASE                           00000007
EEADR                             0000010D
EEADRH                            0000010F
EECON1                            0000018C
EECON2                            0000018D
EEDAT                             0000010C
EEDATA                            0000010C
MPASM 5.87                         SERVO.ASM   12-18-2023  13:36:50         PAGE 13


SYMBOL TABLE
  LABEL                             VALUE 

EEDATH                            0000010E
EEIE                              00000004
EEIF                              00000004
EEPGD                             00000007
EndInterrupt                      00000078
F                                 00000001
FERR                              00000002
FSR                               00000004
FVREN                             00000000
GCEN                              00000007
GIE                               00000007
GO                                00000001
GO_DONE                           00000001
GO_NOT_DONE                       00000001
HTS                               00000002
HighS1                            00000059
HighS2                            00000066
HighS3                            00000073
I2C_DATA                          00000005
I2C_READ                          00000002
I2C_START                         00000003
I2C_STOP                          00000004
INDF                              00000000
INPUT1                            PORTA,0
INPUT2                            PORTA,1
INPUT3                            PORTA,2
INPUT4                            PORTA,3
INTCON                            0000000B
INTE                              00000004
INTEDG                            00000006
INTF                              00000001
IOCB                              00000096
IOCB0                             00000000
IOCB1                             00000001
IOCB2                             00000002
IOCB3                             00000003
IOCB4                             00000004
IOCB5                             00000005
IOCB6                             00000006
IOCB7                             00000007
IRCF0                             00000004
IRCF1                             00000005
IRCF2                             00000006
IRP                               00000007
LED                               PORTC,2
LED_MiniSplit                     PORTC, 3
LED_Sala                          PORTC, 4
LTS                               00000001
Loop                              0000001B
Loop_First                        000000CE
Loop_Second                       000000CC
LowS1                             00000055
LowS2                             00000062
MPASM 5.87                         SERVO.ASM   12-18-2023  13:36:50         PAGE 14


SYMBOL TABLE
  LABEL                             VALUE 

LowS3                             0000006F
MC1OUT                            00000007
MC2OUT                            00000006
MSK                               00000093
MSK0                              00000000
MSK1                              00000001
MSK2                              00000002
MSK3                              00000003
MSK4                              00000004
MSK5                              00000005
MSK6                              00000006
MSK7                              00000007
Main                              00000005
NOT_A                             00000005
NOT_ADDRESS                       00000005
NOT_BO                            00000000
NOT_BOR                           00000000
NOT_DONE                          00000001
NOT_PD                            00000003
NOT_POR                           00000001
NOT_RBPU                          00000007
NOT_RC8                           00000006
NOT_T1SYNC                        00000002
NOT_TO                            00000004
NOT_TX8                           00000006
NOT_W                             00000002
NOT_WRITE                         00000002
OERR                              00000001
OPTION_REG                        00000081
OSCCON                            0000008F
OSCTUNE                           00000090
OSFIE                             00000007
OSFIF                             00000007
OSTS                              00000003
OUTPUT1                           PORTB,0
OUTPUT2                           PORTB,1
OUTPUT3                           PORTB,2
P                                 00000004
P1M0                              00000006
P1M1                              00000007
PCL                               00000002
PCLATH                            0000000A
PCON                              0000008E
PDC0                              00000000
PDC1                              00000001
PDC2                              00000002
PDC3                              00000003
PDC4                              00000004
PDC5                              00000005
PDC6                              00000006
PEIE                              00000006
PEN                               00000002
PIE1                              0000008C
MPASM 5.87                         SERVO.ASM   12-18-2023  13:36:50         PAGE 15


SYMBOL TABLE
  LABEL                             VALUE 

PIE2                              0000008D
PIR1                              0000000C
PIR2                              0000000D
PORTA                             00000005
PORTB                             00000006
PORTC                             00000007
PORTD                             00000008
PORTE                             00000009
PR2                               00000092
PRSEN                             00000007
PS0                               00000000
PS1                               00000001
PS2                               00000002
PSA                               00000003
PSSAC0                            00000002
PSSAC1                            00000003
PSSBD0                            00000000
PSSBD1                            00000001
PSTRCON                           0000009D
PULSR                             00000002
PULSS                             00000003
PWM1CON                           0000009B
R                                 00000002
RA0                               00000000
RA1                               00000001
RA2                               00000002
RA3                               00000003
RA4                               00000004
RA5                               00000005
RA6                               00000006
RA7                               00000007
RB0                               00000000
RB1                               00000001
RB2                               00000002
RB3                               00000003
RB4                               00000004
RB5                               00000005
RB6                               00000006
RB7                               00000007
RBIE                              00000003
RBIF                              00000000
RC0                               00000000
RC1                               00000001
RC2                               00000002
RC3                               00000003
RC4                               00000004
RC5                               00000005
RC6                               00000006
RC7                               00000007
RC8_9                             00000006
RC9                               00000006
RCD8                              00000000
RCEN                              00000003
MPASM 5.87                         SERVO.ASM   12-18-2023  13:36:50         PAGE 16


SYMBOL TABLE
  LABEL                             VALUE 

RCIDL                             00000006
RCIE                              00000005
RCIF                              00000005
RCREG                             0000001A
RCSTA                             00000018
RD                                00000000
RD0                               00000000
RD1                               00000001
RD2                               00000002
RD3                               00000003
RD4                               00000004
RD5                               00000005
RD6                               00000006
RD7                               00000007
RE0                               00000000
RE1                               00000001
RE2                               00000002
RE3                               00000003
READ_WRITE                        00000002
RP0                               00000005
RP1                               00000006
RSEN                              00000001
RX9                               00000006
RX9D                              00000000
R_NOT_W                           00000002
R_W                               00000002
S                                 00000003
SBOREN                            00000004
SCKP                              00000004
SCS                               00000000
SEN                               00000000
SENDB                             00000003
SMP                               00000007
SPBRG                             00000099
SPBRGH                            0000009A
SPEN                              00000007
SR0                               00000006
SR1                               00000007
SRCON                             00000185
SREN                              00000005
SSPADD                            00000093
SSPBUF                            00000013
SSPCON                            00000014
SSPCON2                           00000091
SSPEN                             00000005
SSPIE                             00000003
SSPIF                             00000003
SSPM0                             00000000
SSPM1                             00000001
SSPM2                             00000002
SSPM3                             00000003
SSPMSK                            00000093
SSPOV                             00000006
MPASM 5.87                         SERVO.ASM   12-18-2023  13:36:50         PAGE 17


SYMBOL TABLE
  LABEL                             VALUE 

SSPSTAT                           00000094
STATUS                            00000003
STRA                              00000000
STRB                              00000001
STRC                              00000002
STRD                              00000003
STRSYNC                           00000004
SWDTEN                            00000000
SYNC                              00000004
Servo1                            0000005E
Servo2                            0000006B
T0CS                              00000005
T0IE                              00000005
T0IF                              00000002
T0SE                              00000004
T1                                00000026
T1CKPS0                           00000004
T1CKPS1                           00000005
T1CON                             00000010
T1GINV                            00000007
T1GIV                             00000007
T1GSS                             00000001
T1INSYNC                          00000002
T1OSCEN                           00000003
T1SYNC                            00000002
T2                                00000027
T2CKPS0                           00000000
T2CKPS1                           00000001
T2CON                             00000012
T3                                00000028
TIMER0_Interrupt                  0000004F
TMR0                              00000001
TMR0IE                            00000005
TMR0IF                            00000002
TMR0_LOAD                         000000A4
TMR1                              0000000E
TMR1CS                            00000001
TMR1GE                            00000006
TMR1H                             0000000F
TMR1IE                            00000000
TMR1IF                            00000000
TMR1L                             0000000E
TMR1ON                            00000000
TMR2                              00000011
TMR2IE                            00000001
TMR2IF                            00000001
TMR2ON                            00000002
TOUTPS0                           00000003
TOUTPS1                           00000004
TOUTPS2                           00000005
TOUTPS3                           00000006
TRISA                             00000085
TRISA0                            00000000
MPASM 5.87                         SERVO.ASM   12-18-2023  13:36:50         PAGE 18


SYMBOL TABLE
  LABEL                             VALUE 

TRISA1                            00000001
TRISA2                            00000002
TRISA3                            00000003
TRISA4                            00000004
TRISA5                            00000005
TRISA6                            00000006
TRISA7                            00000007
TRISB                             00000086
TRISB0                            00000000
TRISB1                            00000001
TRISB2                            00000002
TRISB3                            00000003
TRISB4                            00000004
TRISB5                            00000005
TRISB6                            00000006
TRISB7                            00000007
TRISC                             00000087
TRISC0                            00000000
TRISC1                            00000001
TRISC2                            00000002
TRISC3                            00000003
TRISC4                            00000004
TRISC5                            00000005
TRISC6                            00000006
TRISC7                            00000007
TRISD                             00000088
TRISD0                            00000000
TRISD1                            00000001
TRISD2                            00000002
TRISD3                            00000003
TRISD4                            00000004
TRISD5                            00000005
TRISD6                            00000006
TRISD7                            00000007
TRISE                             00000089
TRISE0                            00000000
TRISE1                            00000001
TRISE2                            00000002
TRISE3                            00000003
TRMT                              00000001
TUN0                              00000000
TUN1                              00000001
TUN2                              00000002
TUN3                              00000003
TUN4                              00000004
TX8_9                             00000006
TX9                               00000006
TX9D                              00000000
TXD8                              00000000
TXEN                              00000005
TXIE                              00000004
TXIF                              00000004
TXREG                             00000019
MPASM 5.87                         SERVO.ASM   12-18-2023  13:36:50         PAGE 19


SYMBOL TABLE
  LABEL                             VALUE 

TXSTA                             00000098
UA                                00000001
ULPWUE                            00000005
ULPWUIE                           00000002
ULPWUIF                           00000002
VCFG0                             00000004
VCFG1                             00000005
VR0                               00000000
VR1                               00000001
VR2                               00000002
VR3                               00000003
VRCON                             00000097
VREN                              00000007
VROE                              00000006
VRR                               00000005
VRSS                              00000004
W                                 00000000
WCOL                              00000007
WDTCON                            00000105
WDTPS0                            00000001
WDTPS1                            00000002
WDTPS2                            00000003
WDTPS3                            00000004
WPUB                              00000095
WPUB0                             00000000
WPUB1                             00000001
WPUB2                             00000002
WPUB3                             00000003
WPUB4                             00000004
WPUB5                             00000005
WPUB6                             00000006
WPUB7                             00000007
WR                                00000001
WREN                              00000002
WRERR                             00000003
WUE                               00000001
Z                                 00000002
_BOR21V                           00003EFF
_BOR40V                           00003FFF
_BOR4V_BOR21V                     00003EFF
_BOR4V_BOR40V                     00003FFF
_BOREN_NSLEEP                     00003EFF
_BOREN_OFF                        00003CFF
_BOREN_ON                         00003FFF
_BOREN_SBODEN                     00003DFF
_BOR_NSLEEP                       00003EFF
_BOR_OFF                          00003CFF
_BOR_ON                           00003FFF
_BOR_SBODEN                       00003DFF
_CONFIG1                          00002007
_CONFIG2                          00002008
_CPD_OFF                          00003FFF
_CPD_ON                           00003F7F
MPASM 5.87                         SERVO.ASM   12-18-2023  13:36:50         PAGE 20


SYMBOL TABLE
  LABEL                             VALUE 

_CP_OFF                           00003FFF
_CP_ON                            00003FBF
_DEBUG_OFF                        00003FFF
_DEBUG_ON                         00001FFF
_DEVID1                           00002006
_EC_OSC                           00003FFB
_EXTRC                            00003FFF
_EXTRCIO                          00003FFE
_EXTRC_OSC_CLKOUT                 00003FFF
_EXTRC_OSC_NOCLKOUT               00003FFE
_FCMEN_OFF                        000037FF
_FCMEN_ON                         00003FFF
_FOSC_EC                          00003FFB
_FOSC_EXTRC_CLKOUT                00003FFF
_FOSC_EXTRC_NOCLKOUT              00003FFE
_FOSC_HS                          00003FFA
_FOSC_INTRC_CLKOUT                00003FFD
_FOSC_INTRC_NOCLKOUT              00003FFC
_FOSC_LP                          00003FF8
_FOSC_XT                          00003FF9
_HS_OSC                           00003FFA
_IDLOC0                           00002000
_IDLOC1                           00002001
_IDLOC2                           00002002
_IDLOC3                           00002003
_IESO_OFF                         00003BFF
_IESO_ON                          00003FFF
_INTOSC                           00003FFD
_INTOSCIO                         00003FFC
_INTRC_OSC_CLKOUT                 00003FFD
_INTRC_OSC_NOCLKOUT               00003FFC
_LP_OSC                           00003FF8
_LVP_OFF                          00002FFF
_LVP_ON                           00003FFF
_MCLRE_OFF                        00003FDF
_MCLRE_ON                         00003FFF
_PWRTE_OFF                        00003FFF
_PWRTE_ON                         00003FEF
_WDTE_OFF                         00003FF7
_WDTE_ON                          00003FFF
_WDT_OFF                          00003FF7
_WDT_ON                           00003FFF
_WRT_1FOURTH                      00003BFF
_WRT_256                          00003DFF
_WRT_HALF                         000039FF
_WRT_OFF                          00003FFF
_XT_OSC                           00003FF9
__16F887                          00000001
highfactor1                       00000020
highfactor2                       00000022
highfactor3                       00000024
timer0_counter1                   00000021
timer0_counter2                   00000023
MPASM 5.87                         SERVO.ASM   12-18-2023  13:36:50         PAGE 21


SYMBOL TABLE
  LABEL                             VALUE 

timer0_counter3                   00000025

Errors   :     0
Warnings :    70 reported,     0 suppressed
Messages :    13 reported,     0 suppressed

